target datalayout = "e-m:e-p270:32:32-p271:32:32-p272:64:64-i64:64-i128:128-f80:128-n8:16:32:64-S128"
target triple = "x86_64-pc-linux-gnu"

%struct.DdManager = type { %struct.DdNode, ptr, ptr, ptr, ptr, ptr, ptr, ptr, i32, i32, double, double, double, i32, i32, i32, i32, i32, i32, ptr, ptr, %struct.DdSubtable, i32, i32, i32, i32, i32, i32, i32, double, i32, i32, i32, ptr, i64, double, i32, ptr, ptr, ptr, ptr, ptr, ptr, ptr, i32, ptr, ptr, ptr, ptr, ptr, ptr, i32, i32, i32, double, i32, i32, i32, i32, double, double, i32, i32, i32, i32, i32, i32, i32, i32, i32, ptr, ptr, i32, i32, i32, i32, i32, i32, ptr, ptr, ptr, ptr, ptr, ptr, ptr, ptr, i32, i64, i64, i64, i32, i64, i64, double, double, double, double, double, double, i32, ptr, ptr, i64 }
%struct.DdNode = type { i32, i32, ptr, %union.anon, i64 }
%union.anon = type { %struct.DdChildren }
%struct.DdChildren = type { ptr, ptr }
%struct.DdSubtable = type { ptr, i32, i32, i32, i32, i32, i32, i32, i32, i32, i32, i32 }

; Function Attrs: nounwind uwtable
define ptr @Cudd_addMinus(ptr noundef %0, ptr noundef %1, ptr noundef %2) #0 {
  %4 = alloca ptr, align 8
  %5 = alloca ptr, align 8
  %6 = alloca ptr, align 8
  %7 = alloca ptr, align 8
  %8 = alloca ptr, align 8
  %9 = alloca ptr, align 8
  %10 = alloca ptr, align 8
  %11 = alloca double, align 8
  %12 = alloca i32, align 4
  store ptr %0, ptr %5, align 8, !tbaa !3
  store ptr %1, ptr %6, align 8, !tbaa !35
  store ptr %2, ptr %7, align 8, !tbaa !35
  call void @llvm.lifetime.start.p0(i64 8, ptr %8) #4
  call void @llvm.lifetime.start.p0(i64 8, ptr %9) #4
  call void @llvm.lifetime.start.p0(i64 8, ptr %10) #4
  call void @llvm.lifetime.start.p0(i64 8, ptr %11) #4
  %13 = load ptr, ptr %6, align 8, !tbaa !35
  %14 = load ptr, ptr %13, align 8, !tbaa !9
  store ptr %14, ptr %9, align 8, !tbaa !9
  %15 = load ptr, ptr %7, align 8, !tbaa !35
  %16 = load ptr, ptr %15, align 8, !tbaa !9
  store ptr %16, ptr %10, align 8, !tbaa !9
  %17 = load ptr, ptr %9, align 8, !tbaa !9
  %18 = load ptr, ptr %10, align 8, !tbaa !9
  %19 = icmp eq ptr %17, %18
  br i1 %19, label %20, label %24

20:                                               ; preds = %3
  %21 = load ptr, ptr %5, align 8, !tbaa !3
  %22 = getelementptr inbounds nuw %struct.DdManager, ptr %21, i32 0, i32 2
  %23 = load ptr, ptr %22, align 8, !tbaa !36
  store ptr %23, ptr %4, align 8
  store i32 1, ptr %12, align 4
  br label %65

24:                                               ; preds = %3
  %25 = load ptr, ptr %9, align 8, !tbaa !9
  %26 = load ptr, ptr %5, align 8, !tbaa !3
  %27 = getelementptr inbounds nuw %struct.DdManager, ptr %26, i32 0, i32 2
  %28 = load ptr, ptr %27, align 8, !tbaa !36
  %29 = icmp eq ptr %25, %28
  br i1 %29, label %30, label %34

30:                                               ; preds = %24
  %31 = load ptr, ptr %5, align 8, !tbaa !3
  %32 = load ptr, ptr %10, align 8, !tbaa !9
  %33 = call ptr @cuddAddNegateRecur(ptr noundef %31, ptr noundef %32)
  store ptr %33, ptr %4, align 8
  store i32 1, ptr %12, align 4
  br label %65

34:                                               ; preds = %24
  %35 = load ptr, ptr %10, align 8, !tbaa !9
  %36 = load ptr, ptr %5, align 8, !tbaa !3
  %37 = getelementptr inbounds nuw %struct.DdManager, ptr %36, i32 0, i32 2
  %38 = load ptr, ptr %37, align 8, !tbaa !36
  %39 = icmp eq ptr %35, %38
  br i1 %39, label %40, label %42

40:                                               ; preds = %34
  %41 = load ptr, ptr %9, align 8, !tbaa !9
  store ptr %41, ptr %4, align 8
  store i32 1, ptr %12, align 4
  br label %65

42:                                               ; preds = %34
  %43 = load ptr, ptr %9, align 8, !tbaa !9
  %44 = getelementptr inbounds nuw %struct.DdNode, ptr %43, i32 0, i32 0
  %45 = load i32, ptr %44, align 8, !tbaa !30
  %46 = icmp eq i32 %45, 2147483647
  br i1 %46, label %47, label %64

47:                                               ; preds = %42
  %48 = load ptr, ptr %10, align 8, !tbaa !9
  %49 = getelementptr inbounds nuw %struct.DdNode, ptr %48, i32 0, i32 0
  %50 = load i32, ptr %49, align 8, !tbaa !30
  %51 = icmp eq i32 %50, 2147483647
  br i1 %51, label %52, label %64

52:                                               ; preds = %47
  %53 = load ptr, ptr %9, align 8, !tbaa !9
  %54 = getelementptr inbounds nuw %struct.DdNode, ptr %53, i32 0, i32 3
  %55 = load double, ptr %54, align 8, !tbaa !33
  %56 = load ptr, ptr %10, align 8, !tbaa !9
  %57 = getelementptr inbounds nuw %struct.DdNode, ptr %56, i32 0, i32 3
  %58 = load double, ptr %57, align 8, !tbaa !33
  %59 = fsub double %55, %58
  store double %59, ptr %11, align 8, !tbaa !37
  %60 = load ptr, ptr %5, align 8, !tbaa !3
  %61 = load double, ptr %11, align 8, !tbaa !37
  %62 = call ptr @cuddUniqueConst(ptr noundef %60, double noundef %61)
  store ptr %62, ptr %8, align 8, !tbaa !9
  %63 = load ptr, ptr %8, align 8, !tbaa !9
  store ptr %63, ptr %4, align 8
  store i32 1, ptr %12, align 4
  br label %65

64:                                               ; preds = %47, %42
  store ptr null, ptr %4, align 8
  store i32 1, ptr %12, align 4
  br label %65

65:                                               ; preds = %64, %52, %40, %30, %20
  call void @llvm.lifetime.end.p0(i64 8, ptr %11) #4
  call void @llvm.lifetime.end.p0(i64 8, ptr %10) #4
  call void @llvm.lifetime.end.p0(i64 8, ptr %9) #4
  call void @llvm.lifetime.end.p0(i64 8, ptr %8) #4
  %66 = load ptr, ptr %4, align 8
  ret ptr %66
}