; Function Attrs: nounwind uwtable
define ptr @Cudd_addMinus(ptr noundef %0, ptr noundef readonly captures(none) %1, ptr noundef readonly captures(none) %2) local_unnamed_addr #0 {
  %4 = load ptr, ptr %1, align 8, !tbaa !26
  %5 = load ptr, ptr %2, align 8, !tbaa !26
  %6 = icmp eq ptr %4, %5
  %7 = getelementptr inbounds nuw i8, ptr %0, i64 48
  %8 = load ptr, ptr %7, align 8, !tbaa !32
  br i1 %6, label %28, label %9

9:                                                ; preds = %3
  %10 = icmp eq ptr %4, %8
  br i1 %10, label %11, label %13

11:                                               ; preds = %9
  %12 = tail call ptr @cuddAddNegateRecur(ptr noundef nonnull %0, ptr noundef %5) #5
  br label %28

13:                                               ; preds = %9
  %14 = icmp eq ptr %5, %8
  br i1 %14, label %28, label %15

15:                                               ; preds = %13
  %16 = load i32, ptr %4, align 8, !tbaa !27
  %17 = icmp eq i32 %16, 2147483647
  br i1 %17, label %18, label %28

18:                                               ; preds = %15
  %19 = load i32, ptr %5, align 8, !tbaa !27
  %20 = icmp eq i32 %19, 2147483647
  br i1 %20, label %21, label %28

21:                                               ; preds = %18
  %22 = getelementptr inbounds nuw i8, ptr %4, i64 16
  %23 = load double, ptr %22, align 8, !tbaa !30
  %24 = getelementptr inbounds nuw i8, ptr %5, i64 16
  %25 = load double, ptr %24, align 8, !tbaa !30
  %26 = fsub double %23, %25
  %27 = tail call ptr @cuddUniqueConst(ptr noundef nonnull %0, double noundef %26) #5
  br label %28

28:                                               ; preds = %3, %15, %18, %13, %21, %11
  %.0 = phi ptr [ %12, %11 ], [ %27, %21 ], [ %4, %13 ], [ null, %18 ], [ null, %15 ], [ %8, %3 ]
  ret ptr %.0
}